target datalayout = "e-m:e-p270:32:32-p271:32:32-p272:64:64-i64:64-i128:128-f80:128-n8:16:32:64-S128"
target triple = "x86_64-unknown-linux-gnu"

%"class.icu_75::number::UnlocalizedNumberFormatter" = type <{ %"class.icu_75::number::NumberFormatterSettings", [8 x i8] }>
%"class.icu_75::number::NumberFormatterSettings" = type { %"struct.icu_75::number::impl::MacroProps" }
%"struct.icu_75::number::impl::MacroProps" = type { [4 x i8], %"class.icu_75::number::Notation", %"class.icu_75::MeasureUnit", %"class.icu_75::MeasureUnit", %"class.icu_75::number::Precision", i32, %"class.icu_75::number::impl::Grouper", %"class.icu_75::number::impl::Padder", %"class.icu_75::number::IntegerWidth", %"class.icu_75::number::impl::SymbolsWrapper", i32, i32, i8, i32, %"class.icu_75::number::Scale", %"class.icu_75::number::impl::StringProp", %"class.icu_75::number::impl::StringProp", ptr, ptr, i32, [4 x i8], %"class.icu_75::Locale" }
%"class.icu_75::number::Notation" = type { i32, %"union.icu_75::number::Notation::NotationUnion" }
%"union.icu_75::number::Notation::NotationUnion" = type { %"struct.icu_75::number::Notation::NotationUnion::ScientificSettings" }
%"struct.icu_75::number::Notation::NotationUnion::ScientificSettings" = type { i8, i8, i16, i32 }
%"class.icu_75::MeasureUnit" = type <{ %"class.icu_75::UObject", ptr, i16, i8, [5 x i8] }>
%"class.icu_75::UObject" = type { ptr }
%"class.icu_75::number::Precision" = type <{ i32, [4 x i8], %"union.icu_75::number::Precision::PrecisionUnion", i32, [4 x i8] }>
%"union.icu_75::number::Precision::PrecisionUnion" = type { %"struct.icu_75::number::Precision::PrecisionUnion::IncrementSettings" }
%"struct.icu_75::number::Precision::PrecisionUnion::IncrementSettings" = type { i64, i16, i16 }
%"class.icu_75::number::impl::Grouper" = type { i16, i16, i16, i32 }
%"class.icu_75::number::impl::Padder" = type { i32, %union.anon }
%union.anon = type { %struct.anon }
%struct.anon = type { i32, i32 }
%"class.icu_75::number::IntegerWidth" = type <{ %union.anon.0, i8, [3 x i8] }>
%union.anon.0 = type { i32, [4 x i8] }
%"class.icu_75::number::impl::SymbolsWrapper" = type { i32, %union.anon.2 }
%union.anon.2 = type { ptr }
%"class.icu_75::number::Scale" = type <{ i32, [4 x i8], ptr, i32, [4 x i8] }>
%"class.icu_75::number::impl::StringProp" = type { ptr, i16, i32 }
%"class.icu_75::Locale" = type <{ %"class.icu_75::UObject", [12 x i8], [6 x i8], [4 x i8], [2 x i8], i32, [4 x i8], ptr, [157 x i8], [3 x i8], ptr, i8, [7 x i8] }>

; Function Attrs: mustprogress uwtable
define void @_ZN6icu_756number4impl20NumberPropertyMapper6createERKNS1_23DecimalFormatPropertiesERKNS_20DecimalFormatSymbolsERNS1_22DecimalFormatWarehouseERS3_R10UErrorCode(ptr noalias sret(%"class.icu_75::number::UnlocalizedNumberFormatter") align 8 %agg.result, ptr noundef nonnull align 8 dereferenceable(757) %properties, ptr noundef nonnull align 8 dereferenceable(2883) %symbols, ptr noundef nonnull align 8 dereferenceable(2480) %warehouse, ptr noundef nonnull align 8 dereferenceable(757) %exportedProperties, ptr noundef nonnull align 4 dereferenceable(4) %status) #1 align 2 personality ptr @__gxx_personality_v0 {
entry:
  %result.ptr = alloca ptr, align 8
  %properties.addr = alloca ptr, align 8
  %symbols.addr = alloca ptr, align 8
  %warehouse.addr = alloca ptr, align 8
  %exportedProperties.addr = alloca ptr, align 8
  %status.addr = alloca ptr, align 8
  %ref.tmp = alloca %"class.icu_75::number::UnlocalizedNumberFormatter", align 8
  %ref.tmp1 = alloca %"struct.icu_75::number::impl::MacroProps", align 8
  %exn.slot = alloca ptr, align 8
  %ehselector.slot = alloca i32, align 4
  store ptr %agg.result, ptr %result.ptr, align 8
  store ptr %properties, ptr %properties.addr, align 8
  store ptr %symbols, ptr %symbols.addr, align 8
  store ptr %warehouse, ptr %warehouse.addr, align 8
  store ptr %exportedProperties, ptr %exportedProperties.addr, align 8
  store ptr %status, ptr %status.addr, align 8
  call void @_ZN6icu_756number15NumberFormatter4withEv(ptr sret(%"class.icu_75::number::UnlocalizedNumberFormatter") align 8 %ref.tmp)
  %0 = load ptr, ptr %properties.addr, align 8
  %1 = load ptr, ptr %symbols.addr, align 8
  %2 = load ptr, ptr %warehouse.addr, align 8
  %3 = load ptr, ptr %exportedProperties.addr, align 8
  %4 = load ptr, ptr %status.addr, align 8
  invoke void @_ZN6icu_756number4impl20NumberPropertyMapper8oldToNewERKNS1_23DecimalFormatPropertiesERKNS_20DecimalFormatSymbolsERNS1_22DecimalFormatWarehouseEPS3_R10UErrorCode(ptr sret(%"struct.icu_75::number::impl::MacroProps") align 8 %ref.tmp1, ptr noundef nonnull align 8 dereferenceable(757) %0, ptr noundef nonnull align 8 dereferenceable(2883) %1, ptr noundef nonnull align 8 dereferenceable(2480) %2, ptr noundef %3, ptr noundef nonnull align 4 dereferenceable(4) %4)
          to label %invoke.cont unwind label %lpad

invoke.cont:                                      ; preds = %entry
  invoke void @_ZNO6icu_756number23NumberFormatterSettingsINS0_26UnlocalizedNumberFormatterEE6macrosEONS0_4impl10MacroPropsE(ptr sret(%"class.icu_75::number::UnlocalizedNumberFormatter") align 8 %agg.result, ptr noundef nonnull align 8 dereferenceable(472) %ref.tmp, ptr noundef nonnull align 8 dereferenceable(472) %ref.tmp1)
          to label %invoke.cont3 unwind label %lpad2

invoke.cont3:                                     ; preds = %invoke.cont
  call void @_ZN6icu_756number4impl10MacroPropsD2Ev(ptr noundef nonnull align 8 dereferenceable(472) %ref.tmp1) #8
  call void @_ZN6icu_756number26UnlocalizedNumberFormatterD2Ev(ptr noundef nonnull align 8 dereferenceable(473) %ref.tmp) #8
  ret void

lpad:                                             ; preds = %entry
  %5 = landingpad { ptr, i32 }
          cleanup
  %6 = extractvalue { ptr, i32 } %5, 0
  store ptr %6, ptr %exn.slot, align 8
  %7 = extractvalue { ptr, i32 } %5, 1
  store i32 %7, ptr %ehselector.slot, align 4
  br label %ehcleanup

lpad2:                                            ; preds = %invoke.cont
  %8 = landingpad { ptr, i32 }
          cleanup
  %9 = extractvalue { ptr, i32 } %8, 0
  store ptr %9, ptr %exn.slot, align 8
  %10 = extractvalue { ptr, i32 } %8, 1
  store i32 %10, ptr %ehselector.slot, align 4
  call void @_ZN6icu_756number4impl10MacroPropsD2Ev(ptr noundef nonnull align 8 dereferenceable(472) %ref.tmp1) #8
  br label %ehcleanup

ehcleanup:                                        ; preds = %lpad2, %lpad
  call void @_ZN6icu_756number26UnlocalizedNumberFormatterD2Ev(ptr noundef nonnull align 8 dereferenceable(473) %ref.tmp) #8
  br label %eh.resume

eh.resume:                                        ; preds = %ehcleanup
  %exn = load ptr, ptr %exn.slot, align 8
  %sel = load i32, ptr %ehselector.slot, align 4
  %lpad.val = insertvalue { ptr, i32 } poison, ptr %exn, 0
  %lpad.val4 = insertvalue { ptr, i32 } %lpad.val, i32 %sel, 1
  resume { ptr, i32 } %lpad.val4
}